(dp0
S'HOSUPPORT'
p1
S'1'
p2
sS'PTOKEN'
p3
S'1ce7fe6f9164f98505e1694fc14ddf73'
p4
sS'BDUSS'
p5
S'EczRVhBd0FWZ0hSQkx2V3Frd3ZNQ21FQWx2SG9rN1JybWhzZUlLNUt6YjhqQnhUQVFBQUFBJCQAAAAAAAAAAAEAAADBHAUFbGF0eWFzAAAAAAAAAAAAAAAAAAAAAAAAAAAAAAAAAAAAAAAAAAAAAAAAAAAAAAAAAAAAAAAAAAAAAAAAAAAAAPz~9FL8~~RSd'
p6
sS'USERNAMETYPE'
p7
g2
sS'BDSVRTM'
p8
S'0'
p9
sS'BAIDUID'
p10
S'0CEE56EE3DF22DD87854880A14DA079D:FG=1'
p11
sS'SAVEUSERID'
p12
S'dab04988be8ee41d2e3d'
p13
sS'STOKEN'
p14
S'99694ce51aacd6e72fc0b5779915b350'
p15
sS'UBI'
p16
S'fi_PncwhpxZ%7ETaJc4OM5nJcIgwChiXslsYEKWfizQQ1-ekXLWflInrvYtDDcdv%7Er%7E33K5qx%7EgAsIOBByz39F2QKR-SxaKkYhJ4F%7Ep6zFgPqoQJokncfUCvrItAX%7EmHt4%7E8hWpWSW4AXi2CbVvnvEVupyEN8NzQ8'
p17
sS'H_PS_PSSID'
p18
S'4683_4395_1421_4263_4759'
p19
sS'HISTORY'
p20
S'cec25c89291497503f358746f035'
p21
s.